ARM GAS  /tmp/ccauiiuq.s 			page 1


   1              		.cpu cortex-m7
   2              		.arch armv7e-m
   3              		.fpu fpv5-d16
   4              		.eabi_attribute 28, 1
   5              		.eabi_attribute 20, 1
   6              		.eabi_attribute 21, 1
   7              		.eabi_attribute 23, 3
   8              		.eabi_attribute 24, 1
   9              		.eabi_attribute 25, 1
  10              		.eabi_attribute 26, 1
  11              		.eabi_attribute 30, 1
  12              		.eabi_attribute 34, 1
  13              		.eabi_attribute 18, 4
  14              		.file	"timeouts.c"
  15              		.text
  16              	.Ltext0:
  17              		.cfi_sections	.debug_frame
  18              		.file 1 "../../Middlewares/Third_Party/LwIP/src/core/timeouts.c"
  19              		.section	.rodata.sys_timeout_abs.str1.4,"aMS",%progbits,1
  20              		.align	2
  21              	.LC0:
  22 0000 2E2E2F2E 		.ascii	"../../Middlewares/Third_Party/LwIP/src/core/timeout"
  22      2E2F4D69 
  22      64646C65 
  22      77617265 
  22      732F5468 
  23 0033 732E6300 		.ascii	"s.c\000"
  24 0037 00       		.align	2
  25              	.LC1:
  26 0038 7379735F 		.ascii	"sys_timeout: timeout != NULL, pool MEMP_SYS_TIMEOUT"
  26      74696D65 
  26      6F75743A 
  26      2074696D 
  26      656F7574 
  27 006b 20697320 		.ascii	" is empty\000"
  27      656D7074 
  27      7900
  28 0075 000000   		.align	2
  29              	.LC2:
  30 0078 41737365 		.ascii	"Assertion \"%s\" failed at line %d in %s\012\000"
  30      7274696F 
  30      6E202225 
  30      73222066 
  30      61696C65 
  31              		.section	.text.sys_timeout_abs,"ax",%progbits
  32              		.align	1
  33              		.syntax unified
  34              		.thumb
  35              		.thumb_func
  37              	sys_timeout_abs:
  38              	.LVL0:
  39              	.LFB365:
   1:../../Middlewares/Third_Party/LwIP/src/core/timeouts.c **** /**
   2:../../Middlewares/Third_Party/LwIP/src/core/timeouts.c ****  * @file
   3:../../Middlewares/Third_Party/LwIP/src/core/timeouts.c ****  * Stack-internal timers implementation.
   4:../../Middlewares/Third_Party/LwIP/src/core/timeouts.c ****  * This file includes timer callbacks for stack-internal timers as well as
   5:../../Middlewares/Third_Party/LwIP/src/core/timeouts.c ****  * functions to set up or stop timers and check for expired timers.
ARM GAS  /tmp/ccauiiuq.s 			page 2


   6:../../Middlewares/Third_Party/LwIP/src/core/timeouts.c ****  *
   7:../../Middlewares/Third_Party/LwIP/src/core/timeouts.c ****  */
   8:../../Middlewares/Third_Party/LwIP/src/core/timeouts.c **** 
   9:../../Middlewares/Third_Party/LwIP/src/core/timeouts.c **** /*
  10:../../Middlewares/Third_Party/LwIP/src/core/timeouts.c ****  * Copyright (c) 2001-2004 Swedish Institute of Computer Science.
  11:../../Middlewares/Third_Party/LwIP/src/core/timeouts.c ****  * All rights reserved.
  12:../../Middlewares/Third_Party/LwIP/src/core/timeouts.c ****  *
  13:../../Middlewares/Third_Party/LwIP/src/core/timeouts.c ****  * Redistribution and use in source and binary forms, with or without modification,
  14:../../Middlewares/Third_Party/LwIP/src/core/timeouts.c ****  * are permitted provided that the following conditions are met:
  15:../../Middlewares/Third_Party/LwIP/src/core/timeouts.c ****  *
  16:../../Middlewares/Third_Party/LwIP/src/core/timeouts.c ****  * 1. Redistributions of source code must retain the above copyright notice,
  17:../../Middlewares/Third_Party/LwIP/src/core/timeouts.c ****  *    this list of conditions and the following disclaimer.
  18:../../Middlewares/Third_Party/LwIP/src/core/timeouts.c ****  * 2. Redistributions in binary form must reproduce the above copyright notice,
  19:../../Middlewares/Third_Party/LwIP/src/core/timeouts.c ****  *    this list of conditions and the following disclaimer in the documentation
  20:../../Middlewares/Third_Party/LwIP/src/core/timeouts.c ****  *    and/or other materials provided with the distribution.
  21:../../Middlewares/Third_Party/LwIP/src/core/timeouts.c ****  * 3. The name of the author may not be used to endorse or promote products
  22:../../Middlewares/Third_Party/LwIP/src/core/timeouts.c ****  *    derived from this software without specific prior written permission.
  23:../../Middlewares/Third_Party/LwIP/src/core/timeouts.c ****  *
  24:../../Middlewares/Third_Party/LwIP/src/core/timeouts.c ****  * THIS SOFTWARE IS PROVIDED BY THE AUTHOR ``AS IS'' AND ANY EXPRESS OR IMPLIED
  25:../../Middlewares/Third_Party/LwIP/src/core/timeouts.c ****  * WARRANTIES, INCLUDING, BUT NOT LIMITED TO, THE IMPLIED WARRANTIES OF
  26:../../Middlewares/Third_Party/LwIP/src/core/timeouts.c ****  * MERCHANTABILITY AND FITNESS FOR A PARTICULAR PURPOSE ARE DISCLAIMED. IN NO EVENT
  27:../../Middlewares/Third_Party/LwIP/src/core/timeouts.c ****  * SHALL THE AUTHOR BE LIABLE FOR ANY DIRECT, INDIRECT, INCIDENTAL, SPECIAL,
  28:../../Middlewares/Third_Party/LwIP/src/core/timeouts.c ****  * EXEMPLARY, OR CONSEQUENTIAL DAMAGES (INCLUDING, BUT NOT LIMITED TO, PROCUREMENT
  29:../../Middlewares/Third_Party/LwIP/src/core/timeouts.c ****  * OF SUBSTITUTE GOODS OR SERVICES; LOSS OF USE, DATA, OR PROFITS; OR BUSINESS
  30:../../Middlewares/Third_Party/LwIP/src/core/timeouts.c ****  * INTERRUPTION) HOWEVER CAUSED AND ON ANY THEORY OF LIABILITY, WHETHER IN
  31:../../Middlewares/Third_Party/LwIP/src/core/timeouts.c ****  * CONTRACT, STRICT LIABILITY, OR TORT (INCLUDING NEGLIGENCE OR OTHERWISE) ARISING
  32:../../Middlewares/Third_Party/LwIP/src/core/timeouts.c ****  * IN ANY WAY OUT OF THE USE OF THIS SOFTWARE, EVEN IF ADVISED OF THE POSSIBILITY
  33:../../Middlewares/Third_Party/LwIP/src/core/timeouts.c ****  * OF SUCH DAMAGE.
  34:../../Middlewares/Third_Party/LwIP/src/core/timeouts.c ****  *
  35:../../Middlewares/Third_Party/LwIP/src/core/timeouts.c ****  * This file is part of the lwIP TCP/IP stack.
  36:../../Middlewares/Third_Party/LwIP/src/core/timeouts.c ****  *
  37:../../Middlewares/Third_Party/LwIP/src/core/timeouts.c ****  * Author: Adam Dunkels <adam@sics.se>
  38:../../Middlewares/Third_Party/LwIP/src/core/timeouts.c ****  *         Simon Goldschmidt
  39:../../Middlewares/Third_Party/LwIP/src/core/timeouts.c ****  *
  40:../../Middlewares/Third_Party/LwIP/src/core/timeouts.c ****  */
  41:../../Middlewares/Third_Party/LwIP/src/core/timeouts.c **** 
  42:../../Middlewares/Third_Party/LwIP/src/core/timeouts.c **** #include "lwip/opt.h"
  43:../../Middlewares/Third_Party/LwIP/src/core/timeouts.c **** 
  44:../../Middlewares/Third_Party/LwIP/src/core/timeouts.c **** #include "lwip/timeouts.h"
  45:../../Middlewares/Third_Party/LwIP/src/core/timeouts.c **** #include "lwip/priv/tcp_priv.h"
  46:../../Middlewares/Third_Party/LwIP/src/core/timeouts.c **** 
  47:../../Middlewares/Third_Party/LwIP/src/core/timeouts.c **** #include "lwip/def.h"
  48:../../Middlewares/Third_Party/LwIP/src/core/timeouts.c **** #include "lwip/memp.h"
  49:../../Middlewares/Third_Party/LwIP/src/core/timeouts.c **** #include "lwip/priv/tcpip_priv.h"
  50:../../Middlewares/Third_Party/LwIP/src/core/timeouts.c **** 
  51:../../Middlewares/Third_Party/LwIP/src/core/timeouts.c **** #include "lwip/ip4_frag.h"
  52:../../Middlewares/Third_Party/LwIP/src/core/timeouts.c **** #include "lwip/etharp.h"
  53:../../Middlewares/Third_Party/LwIP/src/core/timeouts.c **** #include "lwip/dhcp.h"
  54:../../Middlewares/Third_Party/LwIP/src/core/timeouts.c **** #include "lwip/autoip.h"
  55:../../Middlewares/Third_Party/LwIP/src/core/timeouts.c **** #include "lwip/igmp.h"
  56:../../Middlewares/Third_Party/LwIP/src/core/timeouts.c **** #include "lwip/dns.h"
  57:../../Middlewares/Third_Party/LwIP/src/core/timeouts.c **** #include "lwip/nd6.h"
  58:../../Middlewares/Third_Party/LwIP/src/core/timeouts.c **** #include "lwip/ip6_frag.h"
  59:../../Middlewares/Third_Party/LwIP/src/core/timeouts.c **** #include "lwip/mld6.h"
  60:../../Middlewares/Third_Party/LwIP/src/core/timeouts.c **** #include "lwip/dhcp6.h"
  61:../../Middlewares/Third_Party/LwIP/src/core/timeouts.c **** #include "lwip/sys.h"
  62:../../Middlewares/Third_Party/LwIP/src/core/timeouts.c **** #include "lwip/pbuf.h"
ARM GAS  /tmp/ccauiiuq.s 			page 3


  63:../../Middlewares/Third_Party/LwIP/src/core/timeouts.c **** 
  64:../../Middlewares/Third_Party/LwIP/src/core/timeouts.c **** #if LWIP_DEBUG_TIMERNAMES
  65:../../Middlewares/Third_Party/LwIP/src/core/timeouts.c **** #define HANDLER(x) x, #x
  66:../../Middlewares/Third_Party/LwIP/src/core/timeouts.c **** #else /* LWIP_DEBUG_TIMERNAMES */
  67:../../Middlewares/Third_Party/LwIP/src/core/timeouts.c **** #define HANDLER(x) x
  68:../../Middlewares/Third_Party/LwIP/src/core/timeouts.c **** #endif /* LWIP_DEBUG_TIMERNAMES */
  69:../../Middlewares/Third_Party/LwIP/src/core/timeouts.c **** 
  70:../../Middlewares/Third_Party/LwIP/src/core/timeouts.c **** #define LWIP_MAX_TIMEOUT  0x7fffffff
  71:../../Middlewares/Third_Party/LwIP/src/core/timeouts.c **** 
  72:../../Middlewares/Third_Party/LwIP/src/core/timeouts.c **** /* Check if timer's expiry time is greater than time and care about u32_t wraparounds */
  73:../../Middlewares/Third_Party/LwIP/src/core/timeouts.c **** #define TIME_LESS_THAN(t, compare_to) ( (((u32_t)((t)-(compare_to))) > LWIP_MAX_TIMEOUT) ? 1 : 0 )
  74:../../Middlewares/Third_Party/LwIP/src/core/timeouts.c **** 
  75:../../Middlewares/Third_Party/LwIP/src/core/timeouts.c **** /** This array contains all stack-internal cyclic timers. To get the number of
  76:../../Middlewares/Third_Party/LwIP/src/core/timeouts.c ****  * timers, use LWIP_ARRAYSIZE() */
  77:../../Middlewares/Third_Party/LwIP/src/core/timeouts.c **** const struct lwip_cyclic_timer lwip_cyclic_timers[] = {
  78:../../Middlewares/Third_Party/LwIP/src/core/timeouts.c **** #if LWIP_TCP
  79:../../Middlewares/Third_Party/LwIP/src/core/timeouts.c ****   /* The TCP timer is a special case: it does not have to run always and
  80:../../Middlewares/Third_Party/LwIP/src/core/timeouts.c ****      is triggered to start from TCP using tcp_timer_needed() */
  81:../../Middlewares/Third_Party/LwIP/src/core/timeouts.c ****   {TCP_TMR_INTERVAL, HANDLER(tcp_tmr)},
  82:../../Middlewares/Third_Party/LwIP/src/core/timeouts.c **** #endif /* LWIP_TCP */
  83:../../Middlewares/Third_Party/LwIP/src/core/timeouts.c **** #if LWIP_IPV4
  84:../../Middlewares/Third_Party/LwIP/src/core/timeouts.c **** #if IP_REASSEMBLY
  85:../../Middlewares/Third_Party/LwIP/src/core/timeouts.c ****   {IP_TMR_INTERVAL, HANDLER(ip_reass_tmr)},
  86:../../Middlewares/Third_Party/LwIP/src/core/timeouts.c **** #endif /* IP_REASSEMBLY */
  87:../../Middlewares/Third_Party/LwIP/src/core/timeouts.c **** #if LWIP_ARP
  88:../../Middlewares/Third_Party/LwIP/src/core/timeouts.c ****   {ARP_TMR_INTERVAL, HANDLER(etharp_tmr)},
  89:../../Middlewares/Third_Party/LwIP/src/core/timeouts.c **** #endif /* LWIP_ARP */
  90:../../Middlewares/Third_Party/LwIP/src/core/timeouts.c **** #if LWIP_DHCP
  91:../../Middlewares/Third_Party/LwIP/src/core/timeouts.c ****   {DHCP_COARSE_TIMER_MSECS, HANDLER(dhcp_coarse_tmr)},
  92:../../Middlewares/Third_Party/LwIP/src/core/timeouts.c ****   {DHCP_FINE_TIMER_MSECS, HANDLER(dhcp_fine_tmr)},
  93:../../Middlewares/Third_Party/LwIP/src/core/timeouts.c **** #endif /* LWIP_DHCP */
  94:../../Middlewares/Third_Party/LwIP/src/core/timeouts.c **** #if LWIP_AUTOIP
  95:../../Middlewares/Third_Party/LwIP/src/core/timeouts.c ****   {AUTOIP_TMR_INTERVAL, HANDLER(autoip_tmr)},
  96:../../Middlewares/Third_Party/LwIP/src/core/timeouts.c **** #endif /* LWIP_AUTOIP */
  97:../../Middlewares/Third_Party/LwIP/src/core/timeouts.c **** #if LWIP_IGMP
  98:../../Middlewares/Third_Party/LwIP/src/core/timeouts.c ****   {IGMP_TMR_INTERVAL, HANDLER(igmp_tmr)},
  99:../../Middlewares/Third_Party/LwIP/src/core/timeouts.c **** #endif /* LWIP_IGMP */
 100:../../Middlewares/Third_Party/LwIP/src/core/timeouts.c **** #endif /* LWIP_IPV4 */
 101:../../Middlewares/Third_Party/LwIP/src/core/timeouts.c **** #if LWIP_DNS
 102:../../Middlewares/Third_Party/LwIP/src/core/timeouts.c ****   {DNS_TMR_INTERVAL, HANDLER(dns_tmr)},
 103:../../Middlewares/Third_Party/LwIP/src/core/timeouts.c **** #endif /* LWIP_DNS */
 104:../../Middlewares/Third_Party/LwIP/src/core/timeouts.c **** #if LWIP_IPV6
 105:../../Middlewares/Third_Party/LwIP/src/core/timeouts.c ****   {ND6_TMR_INTERVAL, HANDLER(nd6_tmr)},
 106:../../Middlewares/Third_Party/LwIP/src/core/timeouts.c **** #if LWIP_IPV6_REASS
 107:../../Middlewares/Third_Party/LwIP/src/core/timeouts.c ****   {IP6_REASS_TMR_INTERVAL, HANDLER(ip6_reass_tmr)},
 108:../../Middlewares/Third_Party/LwIP/src/core/timeouts.c **** #endif /* LWIP_IPV6_REASS */
 109:../../Middlewares/Third_Party/LwIP/src/core/timeouts.c **** #if LWIP_IPV6_MLD
 110:../../Middlewares/Third_Party/LwIP/src/core/timeouts.c ****   {MLD6_TMR_INTERVAL, HANDLER(mld6_tmr)},
 111:../../Middlewares/Third_Party/LwIP/src/core/timeouts.c **** #endif /* LWIP_IPV6_MLD */
 112:../../Middlewares/Third_Party/LwIP/src/core/timeouts.c **** #if LWIP_IPV6_DHCP6
 113:../../Middlewares/Third_Party/LwIP/src/core/timeouts.c ****   {DHCP6_TIMER_MSECS, HANDLER(dhcp6_tmr)},
 114:../../Middlewares/Third_Party/LwIP/src/core/timeouts.c **** #endif /* LWIP_IPV6_DHCP6 */
 115:../../Middlewares/Third_Party/LwIP/src/core/timeouts.c **** #endif /* LWIP_IPV6 */
 116:../../Middlewares/Third_Party/LwIP/src/core/timeouts.c **** };
 117:../../Middlewares/Third_Party/LwIP/src/core/timeouts.c **** const int lwip_num_cyclic_timers = LWIP_ARRAYSIZE(lwip_cyclic_timers);
 118:../../Middlewares/Third_Party/LwIP/src/core/timeouts.c **** 
 119:../../Middlewares/Third_Party/LwIP/src/core/timeouts.c **** #if LWIP_TIMERS && !LWIP_TIMERS_CUSTOM
ARM GAS  /tmp/ccauiiuq.s 			page 4


 120:../../Middlewares/Third_Party/LwIP/src/core/timeouts.c **** 
 121:../../Middlewares/Third_Party/LwIP/src/core/timeouts.c **** /** The one and only timeout list */
 122:../../Middlewares/Third_Party/LwIP/src/core/timeouts.c **** static struct sys_timeo *next_timeout;
 123:../../Middlewares/Third_Party/LwIP/src/core/timeouts.c **** 
 124:../../Middlewares/Third_Party/LwIP/src/core/timeouts.c **** static u32_t current_timeout_due_time;
 125:../../Middlewares/Third_Party/LwIP/src/core/timeouts.c **** 
 126:../../Middlewares/Third_Party/LwIP/src/core/timeouts.c **** #if LWIP_TESTMODE
 127:../../Middlewares/Third_Party/LwIP/src/core/timeouts.c **** struct sys_timeo**
 128:../../Middlewares/Third_Party/LwIP/src/core/timeouts.c **** sys_timeouts_get_next_timeout(void)
 129:../../Middlewares/Third_Party/LwIP/src/core/timeouts.c **** {
 130:../../Middlewares/Third_Party/LwIP/src/core/timeouts.c ****   return &next_timeout;
 131:../../Middlewares/Third_Party/LwIP/src/core/timeouts.c **** }
 132:../../Middlewares/Third_Party/LwIP/src/core/timeouts.c **** #endif
 133:../../Middlewares/Third_Party/LwIP/src/core/timeouts.c **** 
 134:../../Middlewares/Third_Party/LwIP/src/core/timeouts.c **** #if LWIP_TCP
 135:../../Middlewares/Third_Party/LwIP/src/core/timeouts.c **** /** global variable that shows if the tcp timer is currently scheduled or not */
 136:../../Middlewares/Third_Party/LwIP/src/core/timeouts.c **** static int tcpip_tcp_timer_active;
 137:../../Middlewares/Third_Party/LwIP/src/core/timeouts.c **** 
 138:../../Middlewares/Third_Party/LwIP/src/core/timeouts.c **** /**
 139:../../Middlewares/Third_Party/LwIP/src/core/timeouts.c ****  * Timer callback function that calls tcp_tmr() and reschedules itself.
 140:../../Middlewares/Third_Party/LwIP/src/core/timeouts.c ****  *
 141:../../Middlewares/Third_Party/LwIP/src/core/timeouts.c ****  * @param arg unused argument
 142:../../Middlewares/Third_Party/LwIP/src/core/timeouts.c ****  */
 143:../../Middlewares/Third_Party/LwIP/src/core/timeouts.c **** static void
 144:../../Middlewares/Third_Party/LwIP/src/core/timeouts.c **** tcpip_tcp_timer(void *arg)
 145:../../Middlewares/Third_Party/LwIP/src/core/timeouts.c **** {
 146:../../Middlewares/Third_Party/LwIP/src/core/timeouts.c ****   LWIP_UNUSED_ARG(arg);
 147:../../Middlewares/Third_Party/LwIP/src/core/timeouts.c **** 
 148:../../Middlewares/Third_Party/LwIP/src/core/timeouts.c ****   /* call TCP timer handler */
 149:../../Middlewares/Third_Party/LwIP/src/core/timeouts.c ****   tcp_tmr();
 150:../../Middlewares/Third_Party/LwIP/src/core/timeouts.c ****   /* timer still needed? */
 151:../../Middlewares/Third_Party/LwIP/src/core/timeouts.c ****   if (tcp_active_pcbs || tcp_tw_pcbs) {
 152:../../Middlewares/Third_Party/LwIP/src/core/timeouts.c ****     /* restart timer */
 153:../../Middlewares/Third_Party/LwIP/src/core/timeouts.c ****     sys_timeout(TCP_TMR_INTERVAL, tcpip_tcp_timer, NULL);
 154:../../Middlewares/Third_Party/LwIP/src/core/timeouts.c ****   } else {
 155:../../Middlewares/Third_Party/LwIP/src/core/timeouts.c ****     /* disable timer */
 156:../../Middlewares/Third_Party/LwIP/src/core/timeouts.c ****     tcpip_tcp_timer_active = 0;
 157:../../Middlewares/Third_Party/LwIP/src/core/timeouts.c ****   }
 158:../../Middlewares/Third_Party/LwIP/src/core/timeouts.c **** }
 159:../../Middlewares/Third_Party/LwIP/src/core/timeouts.c **** 
 160:../../Middlewares/Third_Party/LwIP/src/core/timeouts.c **** /**
 161:../../Middlewares/Third_Party/LwIP/src/core/timeouts.c ****  * Called from TCP_REG when registering a new PCB:
 162:../../Middlewares/Third_Party/LwIP/src/core/timeouts.c ****  * the reason is to have the TCP timer only running when
 163:../../Middlewares/Third_Party/LwIP/src/core/timeouts.c ****  * there are active (or time-wait) PCBs.
 164:../../Middlewares/Third_Party/LwIP/src/core/timeouts.c ****  */
 165:../../Middlewares/Third_Party/LwIP/src/core/timeouts.c **** void
 166:../../Middlewares/Third_Party/LwIP/src/core/timeouts.c **** tcp_timer_needed(void)
 167:../../Middlewares/Third_Party/LwIP/src/core/timeouts.c **** {
 168:../../Middlewares/Third_Party/LwIP/src/core/timeouts.c ****   LWIP_ASSERT_CORE_LOCKED();
 169:../../Middlewares/Third_Party/LwIP/src/core/timeouts.c **** 
 170:../../Middlewares/Third_Party/LwIP/src/core/timeouts.c ****   /* timer is off but needed again? */
 171:../../Middlewares/Third_Party/LwIP/src/core/timeouts.c ****   if (!tcpip_tcp_timer_active && (tcp_active_pcbs || tcp_tw_pcbs)) {
 172:../../Middlewares/Third_Party/LwIP/src/core/timeouts.c ****     /* enable and start timer */
 173:../../Middlewares/Third_Party/LwIP/src/core/timeouts.c ****     tcpip_tcp_timer_active = 1;
 174:../../Middlewares/Third_Party/LwIP/src/core/timeouts.c ****     sys_timeout(TCP_TMR_INTERVAL, tcpip_tcp_timer, NULL);
 175:../../Middlewares/Third_Party/LwIP/src/core/timeouts.c ****   }
 176:../../Middlewares/Third_Party/LwIP/src/core/timeouts.c **** }
ARM GAS  /tmp/ccauiiuq.s 			page 5


 177:../../Middlewares/Third_Party/LwIP/src/core/timeouts.c **** #endif /* LWIP_TCP */
 178:../../Middlewares/Third_Party/LwIP/src/core/timeouts.c **** 
 179:../../Middlewares/Third_Party/LwIP/src/core/timeouts.c **** static void
 180:../../Middlewares/Third_Party/LwIP/src/core/timeouts.c **** #if LWIP_DEBUG_TIMERNAMES
 181:../../Middlewares/Third_Party/LwIP/src/core/timeouts.c **** sys_timeout_abs(u32_t abs_time, sys_timeout_handler handler, void *arg, const char *handler_name)
 182:../../Middlewares/Third_Party/LwIP/src/core/timeouts.c **** #else /* LWIP_DEBUG_TIMERNAMES */
 183:../../Middlewares/Third_Party/LwIP/src/core/timeouts.c **** sys_timeout_abs(u32_t abs_time, sys_timeout_handler handler, void *arg)
 184:../../Middlewares/Third_Party/LwIP/src/core/timeouts.c **** #endif
 185:../../Middlewares/Third_Party/LwIP/src/core/timeouts.c **** {
  40              		.loc 1 185 1 view -0
  41              		.cfi_startproc
  42              		@ args = 0, pretend = 0, frame = 0
  43              		@ frame_needed = 0, uses_anonymous_args = 0
  44              		.loc 1 185 1 is_stmt 0 view .LVU1
  45 0000 F8B5     		push	{r3, r4, r5, r6, r7, lr}
  46              	.LCFI0:
  47              		.cfi_def_cfa_offset 24
  48              		.cfi_offset 3, -24
  49              		.cfi_offset 4, -20
  50              		.cfi_offset 5, -16
  51              		.cfi_offset 6, -12
  52              		.cfi_offset 7, -8
  53              		.cfi_offset 14, -4
  54 0002 0446     		mov	r4, r0
  55 0004 0F46     		mov	r7, r1
  56 0006 1646     		mov	r6, r2
 186:../../Middlewares/Third_Party/LwIP/src/core/timeouts.c ****   struct sys_timeo *timeout, *t;
  57              		.loc 1 186 3 is_stmt 1 view .LVU2
 187:../../Middlewares/Third_Party/LwIP/src/core/timeouts.c **** 
 188:../../Middlewares/Third_Party/LwIP/src/core/timeouts.c ****   timeout = (struct sys_timeo *)memp_malloc(MEMP_SYS_TIMEOUT);
  58              		.loc 1 188 3 view .LVU3
  59              		.loc 1 188 33 is_stmt 0 view .LVU4
  60 0008 0720     		movs	r0, #7
  61              	.LVL1:
  62              		.loc 1 188 33 view .LVU5
  63 000a FFF7FEFF 		bl	memp_malloc
  64              	.LVL2:
 189:../../Middlewares/Third_Party/LwIP/src/core/timeouts.c ****   if (timeout == NULL) {
  65              		.loc 1 189 3 is_stmt 1 view .LVU6
  66              		.loc 1 189 6 is_stmt 0 view .LVU7
  67 000e 80B1     		cbz	r0, .L10
  68 0010 0546     		mov	r5, r0
 190:../../Middlewares/Third_Party/LwIP/src/core/timeouts.c ****     LWIP_ASSERT("sys_timeout: timeout != NULL, pool MEMP_SYS_TIMEOUT is empty", timeout != NULL);
 191:../../Middlewares/Third_Party/LwIP/src/core/timeouts.c ****     return;
 192:../../Middlewares/Third_Party/LwIP/src/core/timeouts.c ****   }
 193:../../Middlewares/Third_Party/LwIP/src/core/timeouts.c **** 
 194:../../Middlewares/Third_Party/LwIP/src/core/timeouts.c ****   timeout->next = NULL;
  69              		.loc 1 194 3 is_stmt 1 view .LVU8
  70              		.loc 1 194 17 is_stmt 0 view .LVU9
  71 0012 0023     		movs	r3, #0
  72 0014 0360     		str	r3, [r0]
 195:../../Middlewares/Third_Party/LwIP/src/core/timeouts.c ****   timeout->h = handler;
  73              		.loc 1 195 3 is_stmt 1 view .LVU10
  74              		.loc 1 195 14 is_stmt 0 view .LVU11
  75 0016 8760     		str	r7, [r0, #8]
 196:../../Middlewares/Third_Party/LwIP/src/core/timeouts.c ****   timeout->arg = arg;
  76              		.loc 1 196 3 is_stmt 1 view .LVU12
ARM GAS  /tmp/ccauiiuq.s 			page 6


  77              		.loc 1 196 16 is_stmt 0 view .LVU13
  78 0018 C660     		str	r6, [r0, #12]
 197:../../Middlewares/Third_Party/LwIP/src/core/timeouts.c ****   timeout->time = abs_time;
  79              		.loc 1 197 3 is_stmt 1 view .LVU14
  80              		.loc 1 197 17 is_stmt 0 view .LVU15
  81 001a 4460     		str	r4, [r0, #4]
 198:../../Middlewares/Third_Party/LwIP/src/core/timeouts.c **** 
 199:../../Middlewares/Third_Party/LwIP/src/core/timeouts.c **** #if LWIP_DEBUG_TIMERNAMES
 200:../../Middlewares/Third_Party/LwIP/src/core/timeouts.c ****   timeout->handler_name = handler_name;
 201:../../Middlewares/Third_Party/LwIP/src/core/timeouts.c ****   LWIP_DEBUGF(TIMERS_DEBUG, ("sys_timeout: %p abs_time=%"U32_F" handler=%s arg=%p\n",
 202:../../Middlewares/Third_Party/LwIP/src/core/timeouts.c ****                              (void *)timeout, abs_time, handler_name, (void *)arg));
 203:../../Middlewares/Third_Party/LwIP/src/core/timeouts.c **** #endif /* LWIP_DEBUG_TIMERNAMES */
 204:../../Middlewares/Third_Party/LwIP/src/core/timeouts.c **** 
 205:../../Middlewares/Third_Party/LwIP/src/core/timeouts.c ****   if (next_timeout == NULL) {
  82              		.loc 1 205 3 is_stmt 1 view .LVU16
  83              		.loc 1 205 20 is_stmt 0 view .LVU17
  84 001c 104B     		ldr	r3, .L12
  85 001e 1A68     		ldr	r2, [r3]
  86              		.loc 1 205 6 view .LVU18
  87 0020 72B1     		cbz	r2, .L11
 206:../../Middlewares/Third_Party/LwIP/src/core/timeouts.c ****     next_timeout = timeout;
 207:../../Middlewares/Third_Party/LwIP/src/core/timeouts.c ****     return;
 208:../../Middlewares/Third_Party/LwIP/src/core/timeouts.c ****   }
 209:../../Middlewares/Third_Party/LwIP/src/core/timeouts.c ****   if (TIME_LESS_THAN(timeout->time, next_timeout->time)) {
  88              		.loc 1 209 3 is_stmt 1 view .LVU19
  89              		.loc 1 209 7 is_stmt 0 view .LVU20
  90 0022 5368     		ldr	r3, [r2, #4]
  91 0024 E31A     		subs	r3, r4, r3
  92              		.loc 1 209 6 view .LVU21
  93 0026 002B     		cmp	r3, #0
  94 0028 0FDA     		bge	.L5
 210:../../Middlewares/Third_Party/LwIP/src/core/timeouts.c ****     timeout->next = next_timeout;
  95              		.loc 1 210 5 is_stmt 1 view .LVU22
  96              		.loc 1 210 19 is_stmt 0 view .LVU23
  97 002a 0260     		str	r2, [r0]
 211:../../Middlewares/Third_Party/LwIP/src/core/timeouts.c ****     next_timeout = timeout;
  98              		.loc 1 211 5 is_stmt 1 view .LVU24
  99              		.loc 1 211 18 is_stmt 0 view .LVU25
 100 002c 0C4B     		ldr	r3, .L12
 101 002e 1860     		str	r0, [r3]
 102              	.LVL3:
 103              	.L1:
 212:../../Middlewares/Third_Party/LwIP/src/core/timeouts.c ****   } else {
 213:../../Middlewares/Third_Party/LwIP/src/core/timeouts.c ****     for (t = next_timeout; t != NULL; t = t->next) {
 214:../../Middlewares/Third_Party/LwIP/src/core/timeouts.c ****       if ((t->next == NULL) || TIME_LESS_THAN(timeout->time, t->next->time)) {
 215:../../Middlewares/Third_Party/LwIP/src/core/timeouts.c ****         timeout->next = t->next;
 216:../../Middlewares/Third_Party/LwIP/src/core/timeouts.c ****         t->next = timeout;
 217:../../Middlewares/Third_Party/LwIP/src/core/timeouts.c ****         break;
 218:../../Middlewares/Third_Party/LwIP/src/core/timeouts.c ****       }
 219:../../Middlewares/Third_Party/LwIP/src/core/timeouts.c ****     }
 220:../../Middlewares/Third_Party/LwIP/src/core/timeouts.c ****   }
 221:../../Middlewares/Third_Party/LwIP/src/core/timeouts.c **** }
 104              		.loc 1 221 1 view .LVU26
 105 0030 F8BD     		pop	{r3, r4, r5, r6, r7, pc}
 106              	.LVL4:
 107              	.L10:
 190:../../Middlewares/Third_Party/LwIP/src/core/timeouts.c ****     return;
ARM GAS  /tmp/ccauiiuq.s 			page 7


 108              		.loc 1 190 5 is_stmt 1 view .LVU27
 190:../../Middlewares/Third_Party/LwIP/src/core/timeouts.c ****     return;
 109              		.loc 1 190 5 view .LVU28
 190:../../Middlewares/Third_Party/LwIP/src/core/timeouts.c ****     return;
 110              		.loc 1 190 5 discriminator 1 view .LVU29
 190:../../Middlewares/Third_Party/LwIP/src/core/timeouts.c ****     return;
 111              		.loc 1 190 5 discriminator 1 view .LVU30
 112 0032 0C4B     		ldr	r3, .L12+4
 113 0034 BE22     		movs	r2, #190
 114 0036 0C49     		ldr	r1, .L12+8
 115 0038 0C48     		ldr	r0, .L12+12
 116              	.LVL5:
 190:../../Middlewares/Third_Party/LwIP/src/core/timeouts.c ****     return;
 117              		.loc 1 190 5 is_stmt 0 discriminator 1 view .LVU31
 118 003a FFF7FEFF 		bl	printf
 119              	.LVL6:
 190:../../Middlewares/Third_Party/LwIP/src/core/timeouts.c ****     return;
 120              		.loc 1 190 5 is_stmt 1 discriminator 3 view .LVU32
 190:../../Middlewares/Third_Party/LwIP/src/core/timeouts.c ****     return;
 121              		.loc 1 190 5 discriminator 3 view .LVU33
 191:../../Middlewares/Third_Party/LwIP/src/core/timeouts.c ****   }
 122              		.loc 1 191 5 view .LVU34
 123 003e F7E7     		b	.L1
 124              	.LVL7:
 125              	.L11:
 206:../../Middlewares/Third_Party/LwIP/src/core/timeouts.c ****     return;
 126              		.loc 1 206 5 view .LVU35
 206:../../Middlewares/Third_Party/LwIP/src/core/timeouts.c ****     return;
 127              		.loc 1 206 18 is_stmt 0 view .LVU36
 128 0040 1860     		str	r0, [r3]
 207:../../Middlewares/Third_Party/LwIP/src/core/timeouts.c ****   }
 129              		.loc 1 207 5 is_stmt 1 view .LVU37
 130 0042 F5E7     		b	.L1
 131              	.LVL8:
 132              	.L6:
 215:../../Middlewares/Third_Party/LwIP/src/core/timeouts.c ****         t->next = timeout;
 133              		.loc 1 215 9 view .LVU38
 215:../../Middlewares/Third_Party/LwIP/src/core/timeouts.c ****         t->next = timeout;
 134              		.loc 1 215 23 is_stmt 0 view .LVU39
 135 0044 2B60     		str	r3, [r5]
 216:../../Middlewares/Third_Party/LwIP/src/core/timeouts.c ****         break;
 136              		.loc 1 216 9 is_stmt 1 view .LVU40
 216:../../Middlewares/Third_Party/LwIP/src/core/timeouts.c ****         break;
 137              		.loc 1 216 17 is_stmt 0 view .LVU41
 138 0046 1560     		str	r5, [r2]
 217:../../Middlewares/Third_Party/LwIP/src/core/timeouts.c ****       }
 139              		.loc 1 217 9 is_stmt 1 view .LVU42
 140 0048 F2E7     		b	.L1
 141              	.LVL9:
 142              	.L5:
 213:../../Middlewares/Third_Party/LwIP/src/core/timeouts.c ****       if ((t->next == NULL) || TIME_LESS_THAN(timeout->time, t->next->time)) {
 143              		.loc 1 213 30 discriminator 1 view .LVU43
 144 004a 002A     		cmp	r2, #0
 145 004c F0D0     		beq	.L1
 214:../../Middlewares/Third_Party/LwIP/src/core/timeouts.c ****         timeout->next = t->next;
 146              		.loc 1 214 7 view .LVU44
 214:../../Middlewares/Third_Party/LwIP/src/core/timeouts.c ****         timeout->next = t->next;
ARM GAS  /tmp/ccauiiuq.s 			page 8


 147              		.loc 1 214 13 is_stmt 0 view .LVU45
 148 004e 1368     		ldr	r3, [r2]
 214:../../Middlewares/Third_Party/LwIP/src/core/timeouts.c ****         timeout->next = t->next;
 149              		.loc 1 214 10 view .LVU46
 150 0050 002B     		cmp	r3, #0
 151 0052 F7D0     		beq	.L6
 214:../../Middlewares/Third_Party/LwIP/src/core/timeouts.c ****         timeout->next = t->next;
 152              		.loc 1 214 32 discriminator 1 view .LVU47
 153 0054 5968     		ldr	r1, [r3, #4]
 154 0056 611A     		subs	r1, r4, r1
 214:../../Middlewares/Third_Party/LwIP/src/core/timeouts.c ****         timeout->next = t->next;
 155              		.loc 1 214 29 discriminator 1 view .LVU48
 156 0058 0029     		cmp	r1, #0
 157 005a F3DB     		blt	.L6
 213:../../Middlewares/Third_Party/LwIP/src/core/timeouts.c ****       if ((t->next == NULL) || TIME_LESS_THAN(timeout->time, t->next->time)) {
 158              		.loc 1 213 41 discriminator 2 view .LVU49
 159 005c 1A46     		mov	r2, r3
 160              	.LVL10:
 213:../../Middlewares/Third_Party/LwIP/src/core/timeouts.c ****       if ((t->next == NULL) || TIME_LESS_THAN(timeout->time, t->next->time)) {
 161              		.loc 1 213 41 discriminator 2 view .LVU50
 162 005e F4E7     		b	.L5
 163              	.L13:
 164              		.align	2
 165              	.L12:
 166 0060 00000000 		.word	next_timeout
 167 0064 00000000 		.word	.LC0
 168 0068 38000000 		.word	.LC1
 169 006c 78000000 		.word	.LC2
 170              		.cfi_endproc
 171              	.LFE365:
 173              		.section	.text.lwip_cyclic_timer,"ax",%progbits
 174              		.align	1
 175              		.syntax unified
 176              		.thumb
 177              		.thumb_func
 179              	lwip_cyclic_timer:
 180              	.LVL11:
 181              	.LFB366:
 222:../../Middlewares/Third_Party/LwIP/src/core/timeouts.c **** 
 223:../../Middlewares/Third_Party/LwIP/src/core/timeouts.c **** /**
 224:../../Middlewares/Third_Party/LwIP/src/core/timeouts.c ****  * Timer callback function that calls cyclic->handler() and reschedules itself.
 225:../../Middlewares/Third_Party/LwIP/src/core/timeouts.c ****  *
 226:../../Middlewares/Third_Party/LwIP/src/core/timeouts.c ****  * @param arg unused argument
 227:../../Middlewares/Third_Party/LwIP/src/core/timeouts.c ****  */
 228:../../Middlewares/Third_Party/LwIP/src/core/timeouts.c **** #if !LWIP_TESTMODE
 229:../../Middlewares/Third_Party/LwIP/src/core/timeouts.c **** static
 230:../../Middlewares/Third_Party/LwIP/src/core/timeouts.c **** #endif
 231:../../Middlewares/Third_Party/LwIP/src/core/timeouts.c **** void
 232:../../Middlewares/Third_Party/LwIP/src/core/timeouts.c **** lwip_cyclic_timer(void *arg)
 233:../../Middlewares/Third_Party/LwIP/src/core/timeouts.c **** {
 182              		.loc 1 233 1 is_stmt 1 view -0
 183              		.cfi_startproc
 184              		@ args = 0, pretend = 0, frame = 0
 185              		@ frame_needed = 0, uses_anonymous_args = 0
 186              		.loc 1 233 1 is_stmt 0 view .LVU52
 187 0000 38B5     		push	{r3, r4, r5, lr}
 188              	.LCFI1:
ARM GAS  /tmp/ccauiiuq.s 			page 9


 189              		.cfi_def_cfa_offset 16
 190              		.cfi_offset 3, -16
 191              		.cfi_offset 4, -12
 192              		.cfi_offset 5, -8
 193              		.cfi_offset 14, -4
 194 0002 0446     		mov	r4, r0
 234:../../Middlewares/Third_Party/LwIP/src/core/timeouts.c ****   u32_t now;
 195              		.loc 1 234 3 is_stmt 1 view .LVU53
 235:../../Middlewares/Third_Party/LwIP/src/core/timeouts.c ****   u32_t next_timeout_time;
 196              		.loc 1 235 3 view .LVU54
 236:../../Middlewares/Third_Party/LwIP/src/core/timeouts.c ****   const struct lwip_cyclic_timer *cyclic = (const struct lwip_cyclic_timer *)arg;
 197              		.loc 1 236 3 view .LVU55
 198              	.LVL12:
 237:../../Middlewares/Third_Party/LwIP/src/core/timeouts.c **** 
 238:../../Middlewares/Third_Party/LwIP/src/core/timeouts.c **** #if LWIP_DEBUG_TIMERNAMES
 239:../../Middlewares/Third_Party/LwIP/src/core/timeouts.c ****   LWIP_DEBUGF(TIMERS_DEBUG, ("tcpip: %s()\n", cyclic->handler_name));
 240:../../Middlewares/Third_Party/LwIP/src/core/timeouts.c **** #endif
 241:../../Middlewares/Third_Party/LwIP/src/core/timeouts.c ****   cyclic->handler();
 199              		.loc 1 241 3 view .LVU56
 200              		.loc 1 241 9 is_stmt 0 view .LVU57
 201 0004 4368     		ldr	r3, [r0, #4]
 202              		.loc 1 241 3 view .LVU58
 203 0006 9847     		blx	r3
 204              	.LVL13:
 242:../../Middlewares/Third_Party/LwIP/src/core/timeouts.c **** 
 243:../../Middlewares/Third_Party/LwIP/src/core/timeouts.c ****   now = sys_now();
 205              		.loc 1 243 3 is_stmt 1 view .LVU59
 206              		.loc 1 243 9 is_stmt 0 view .LVU60
 207 0008 FFF7FEFF 		bl	sys_now
 208              	.LVL14:
 209 000c 8446     		mov	ip, r0
 210              	.LVL15:
 244:../../Middlewares/Third_Party/LwIP/src/core/timeouts.c ****   next_timeout_time = (u32_t)(current_timeout_due_time + cyclic->interval_ms);  /* overflow handled
 211              		.loc 1 244 3 is_stmt 1 view .LVU61
 212              		.loc 1 244 64 is_stmt 0 view .LVU62
 213 000e 2568     		ldr	r5, [r4]
 214              		.loc 1 244 23 view .LVU63
 215 0010 094B     		ldr	r3, .L18
 216 0012 1868     		ldr	r0, [r3]
 217              	.LVL16:
 218              		.loc 1 244 21 view .LVU64
 219 0014 2844     		add	r0, r0, r5
 220              	.LVL17:
 245:../../Middlewares/Third_Party/LwIP/src/core/timeouts.c ****   if (TIME_LESS_THAN(next_timeout_time, now)) {
 221              		.loc 1 245 3 is_stmt 1 view .LVU65
 222              		.loc 1 245 7 is_stmt 0 view .LVU66
 223 0016 A0EB0C03 		sub	r3, r0, ip
 224              		.loc 1 245 6 view .LVU67
 225 001a 002B     		cmp	r3, #0
 226 001c 06DA     		bge	.L15
 246:../../Middlewares/Third_Party/LwIP/src/core/timeouts.c ****     /* timer would immediately expire again -> "overload" -> restart without any correction */
 247:../../Middlewares/Third_Party/LwIP/src/core/timeouts.c **** #if LWIP_DEBUG_TIMERNAMES
 248:../../Middlewares/Third_Party/LwIP/src/core/timeouts.c ****     sys_timeout_abs((u32_t)(now + cyclic->interval_ms), lwip_cyclic_timer, arg, cyclic->handler_nam
 249:../../Middlewares/Third_Party/LwIP/src/core/timeouts.c **** #else
 250:../../Middlewares/Third_Party/LwIP/src/core/timeouts.c ****     sys_timeout_abs((u32_t)(now + cyclic->interval_ms), lwip_cyclic_timer, arg);
 227              		.loc 1 250 5 is_stmt 1 view .LVU68
 228 001e 2246     		mov	r2, r4
ARM GAS  /tmp/ccauiiuq.s 			page 10


 229 0020 0649     		ldr	r1, .L18+4
 230 0022 05EB0C00 		add	r0, r5, ip
 231              	.LVL18:
 232              		.loc 1 250 5 is_stmt 0 view .LVU69
 233 0026 FFF7FEFF 		bl	sys_timeout_abs
 234              	.LVL19:
 235              	.L14:
 251:../../Middlewares/Third_Party/LwIP/src/core/timeouts.c **** #endif
 252:../../Middlewares/Third_Party/LwIP/src/core/timeouts.c **** 
 253:../../Middlewares/Third_Party/LwIP/src/core/timeouts.c ****   } else {
 254:../../Middlewares/Third_Party/LwIP/src/core/timeouts.c ****     /* correct cyclic interval with handler execution delay and sys_check_timeouts jitter */
 255:../../Middlewares/Third_Party/LwIP/src/core/timeouts.c **** #if LWIP_DEBUG_TIMERNAMES
 256:../../Middlewares/Third_Party/LwIP/src/core/timeouts.c ****     sys_timeout_abs(next_timeout_time, lwip_cyclic_timer, arg, cyclic->handler_name);
 257:../../Middlewares/Third_Party/LwIP/src/core/timeouts.c **** #else
 258:../../Middlewares/Third_Party/LwIP/src/core/timeouts.c ****     sys_timeout_abs(next_timeout_time, lwip_cyclic_timer, arg);
 259:../../Middlewares/Third_Party/LwIP/src/core/timeouts.c **** #endif
 260:../../Middlewares/Third_Party/LwIP/src/core/timeouts.c ****   }
 261:../../Middlewares/Third_Party/LwIP/src/core/timeouts.c **** }
 236              		.loc 1 261 1 view .LVU70
 237 002a 38BD     		pop	{r3, r4, r5, pc}
 238              	.LVL20:
 239              	.L15:
 258:../../Middlewares/Third_Party/LwIP/src/core/timeouts.c **** #endif
 240              		.loc 1 258 5 is_stmt 1 view .LVU71
 241 002c 2246     		mov	r2, r4
 242 002e 0349     		ldr	r1, .L18+4
 243 0030 FFF7FEFF 		bl	sys_timeout_abs
 244              	.LVL21:
 245              		.loc 1 261 1 is_stmt 0 view .LVU72
 246 0034 F9E7     		b	.L14
 247              	.L19:
 248 0036 00BF     		.align	2
 249              	.L18:
 250 0038 00000000 		.word	current_timeout_due_time
 251 003c 00000000 		.word	lwip_cyclic_timer
 252              		.cfi_endproc
 253              	.LFE366:
 255              		.section	.rodata.sys_timeout.str1.4,"aMS",%progbits,1
 256              		.align	2
 257              	.LC3:
 258 0000 54696D65 		.ascii	"Timeout time too long, max is LWIP_UINT32_MAX/4 mse"
 258      6F757420 
 258      74696D65 
 258      20746F6F 
 258      206C6F6E 
 259 0033 637300   		.ascii	"cs\000"
 260              		.section	.text.sys_timeout,"ax",%progbits
 261              		.align	1
 262              		.global	sys_timeout
 263              		.syntax unified
 264              		.thumb
 265              		.thumb_func
 267              	sys_timeout:
 268              	.LVL22:
 269              	.LFB368:
 262:../../Middlewares/Third_Party/LwIP/src/core/timeouts.c **** 
 263:../../Middlewares/Third_Party/LwIP/src/core/timeouts.c **** /** Initialize this module */
ARM GAS  /tmp/ccauiiuq.s 			page 11


 264:../../Middlewares/Third_Party/LwIP/src/core/timeouts.c **** void sys_timeouts_init(void)
 265:../../Middlewares/Third_Party/LwIP/src/core/timeouts.c **** {
 266:../../Middlewares/Third_Party/LwIP/src/core/timeouts.c ****   size_t i;
 267:../../Middlewares/Third_Party/LwIP/src/core/timeouts.c ****   /* tcp_tmr() at index 0 is started on demand */
 268:../../Middlewares/Third_Party/LwIP/src/core/timeouts.c ****   for (i = (LWIP_TCP ? 1 : 0); i < LWIP_ARRAYSIZE(lwip_cyclic_timers); i++) {
 269:../../Middlewares/Third_Party/LwIP/src/core/timeouts.c ****     /* we have to cast via size_t to get rid of const warning
 270:../../Middlewares/Third_Party/LwIP/src/core/timeouts.c ****       (this is OK as cyclic_timer() casts back to const* */
 271:../../Middlewares/Third_Party/LwIP/src/core/timeouts.c ****     sys_timeout(lwip_cyclic_timers[i].interval_ms, lwip_cyclic_timer, LWIP_CONST_CAST(void *, &lwip
 272:../../Middlewares/Third_Party/LwIP/src/core/timeouts.c ****   }
 273:../../Middlewares/Third_Party/LwIP/src/core/timeouts.c **** }
 274:../../Middlewares/Third_Party/LwIP/src/core/timeouts.c **** 
 275:../../Middlewares/Third_Party/LwIP/src/core/timeouts.c **** /**
 276:../../Middlewares/Third_Party/LwIP/src/core/timeouts.c ****  * Create a one-shot timer (aka timeout). Timeouts are processed in the
 277:../../Middlewares/Third_Party/LwIP/src/core/timeouts.c ****  * following cases:
 278:../../Middlewares/Third_Party/LwIP/src/core/timeouts.c ****  * - while waiting for a message using sys_timeouts_mbox_fetch()
 279:../../Middlewares/Third_Party/LwIP/src/core/timeouts.c ****  * - by calling sys_check_timeouts() (NO_SYS==1 only)
 280:../../Middlewares/Third_Party/LwIP/src/core/timeouts.c ****  *
 281:../../Middlewares/Third_Party/LwIP/src/core/timeouts.c ****  * @param msecs time in milliseconds after that the timer should expire
 282:../../Middlewares/Third_Party/LwIP/src/core/timeouts.c ****  * @param handler callback function to call when msecs have elapsed
 283:../../Middlewares/Third_Party/LwIP/src/core/timeouts.c ****  * @param arg argument to pass to the callback function
 284:../../Middlewares/Third_Party/LwIP/src/core/timeouts.c ****  */
 285:../../Middlewares/Third_Party/LwIP/src/core/timeouts.c **** #if LWIP_DEBUG_TIMERNAMES
 286:../../Middlewares/Third_Party/LwIP/src/core/timeouts.c **** void
 287:../../Middlewares/Third_Party/LwIP/src/core/timeouts.c **** sys_timeout_debug(u32_t msecs, sys_timeout_handler handler, void *arg, const char *handler_name)
 288:../../Middlewares/Third_Party/LwIP/src/core/timeouts.c **** #else /* LWIP_DEBUG_TIMERNAMES */
 289:../../Middlewares/Third_Party/LwIP/src/core/timeouts.c **** void
 290:../../Middlewares/Third_Party/LwIP/src/core/timeouts.c **** sys_timeout(u32_t msecs, sys_timeout_handler handler, void *arg)
 291:../../Middlewares/Third_Party/LwIP/src/core/timeouts.c **** #endif /* LWIP_DEBUG_TIMERNAMES */
 292:../../Middlewares/Third_Party/LwIP/src/core/timeouts.c **** {
 270              		.loc 1 292 1 is_stmt 1 view -0
 271              		.cfi_startproc
 272              		@ args = 0, pretend = 0, frame = 0
 273              		@ frame_needed = 0, uses_anonymous_args = 0
 274              		.loc 1 292 1 is_stmt 0 view .LVU74
 275 0000 70B5     		push	{r4, r5, r6, lr}
 276              	.LCFI2:
 277              		.cfi_def_cfa_offset 16
 278              		.cfi_offset 4, -16
 279              		.cfi_offset 5, -12
 280              		.cfi_offset 6, -8
 281              		.cfi_offset 14, -4
 282 0002 0446     		mov	r4, r0
 283 0004 0D46     		mov	r5, r1
 284 0006 1646     		mov	r6, r2
 293:../../Middlewares/Third_Party/LwIP/src/core/timeouts.c ****   u32_t next_timeout_time;
 285              		.loc 1 293 3 is_stmt 1 view .LVU75
 294:../../Middlewares/Third_Party/LwIP/src/core/timeouts.c **** 
 295:../../Middlewares/Third_Party/LwIP/src/core/timeouts.c ****   LWIP_ASSERT_CORE_LOCKED();
 286              		.loc 1 295 28 view .LVU76
 296:../../Middlewares/Third_Party/LwIP/src/core/timeouts.c **** 
 297:../../Middlewares/Third_Party/LwIP/src/core/timeouts.c ****   LWIP_ASSERT("Timeout time too long, max is LWIP_UINT32_MAX/4 msecs", msecs <= (LWIP_UINT32_MAX / 
 287              		.loc 1 297 3 view .LVU77
 288              		.loc 1 297 3 view .LVU78
 289 0008 B0F1804F 		cmp	r0, #1073741824
 290 000c 07D2     		bcs	.L23
 291              	.LVL23:
 292              	.L21:
ARM GAS  /tmp/ccauiiuq.s 			page 12


 293              		.loc 1 297 3 discriminator 3 view .LVU79
 294              		.loc 1 297 3 discriminator 3 view .LVU80
 298:../../Middlewares/Third_Party/LwIP/src/core/timeouts.c **** 
 299:../../Middlewares/Third_Party/LwIP/src/core/timeouts.c ****   next_timeout_time = (u32_t)(sys_now() + msecs); /* overflow handled by TIME_LESS_THAN macro */ 
 295              		.loc 1 299 3 view .LVU81
 296              		.loc 1 299 31 is_stmt 0 view .LVU82
 297 000e FFF7FEFF 		bl	sys_now
 298              	.LVL24:
 300:../../Middlewares/Third_Party/LwIP/src/core/timeouts.c **** 
 301:../../Middlewares/Third_Party/LwIP/src/core/timeouts.c **** #if LWIP_DEBUG_TIMERNAMES
 302:../../Middlewares/Third_Party/LwIP/src/core/timeouts.c ****   sys_timeout_abs(next_timeout_time, handler, arg, handler_name);
 303:../../Middlewares/Third_Party/LwIP/src/core/timeouts.c **** #else
 304:../../Middlewares/Third_Party/LwIP/src/core/timeouts.c ****   sys_timeout_abs(next_timeout_time, handler, arg);
 299              		.loc 1 304 3 is_stmt 1 view .LVU83
 300 0012 3246     		mov	r2, r6
 301 0014 2946     		mov	r1, r5
 302 0016 2044     		add	r0, r0, r4
 303              	.LVL25:
 304              		.loc 1 304 3 is_stmt 0 view .LVU84
 305 0018 FFF7FEFF 		bl	sys_timeout_abs
 306              	.LVL26:
 305:../../Middlewares/Third_Party/LwIP/src/core/timeouts.c **** #endif
 306:../../Middlewares/Third_Party/LwIP/src/core/timeouts.c **** }
 307              		.loc 1 306 1 view .LVU85
 308 001c 70BD     		pop	{r4, r5, r6, pc}
 309              	.LVL27:
 310              	.L23:
 297:../../Middlewares/Third_Party/LwIP/src/core/timeouts.c **** 
 311              		.loc 1 297 3 is_stmt 1 discriminator 1 view .LVU86
 297:../../Middlewares/Third_Party/LwIP/src/core/timeouts.c **** 
 312              		.loc 1 297 3 discriminator 1 view .LVU87
 313 001e 044B     		ldr	r3, .L24
 314 0020 40F22912 		movw	r2, #297
 315              	.LVL28:
 297:../../Middlewares/Third_Party/LwIP/src/core/timeouts.c **** 
 316              		.loc 1 297 3 is_stmt 0 discriminator 1 view .LVU88
 317 0024 0349     		ldr	r1, .L24+4
 318              	.LVL29:
 297:../../Middlewares/Third_Party/LwIP/src/core/timeouts.c **** 
 319              		.loc 1 297 3 discriminator 1 view .LVU89
 320 0026 0448     		ldr	r0, .L24+8
 321              	.LVL30:
 297:../../Middlewares/Third_Party/LwIP/src/core/timeouts.c **** 
 322              		.loc 1 297 3 discriminator 1 view .LVU90
 323 0028 FFF7FEFF 		bl	printf
 324              	.LVL31:
 325 002c EFE7     		b	.L21
 326              	.L25:
 327 002e 00BF     		.align	2
 328              	.L24:
 329 0030 00000000 		.word	.LC0
 330 0034 00000000 		.word	.LC3
 331 0038 78000000 		.word	.LC2
 332              		.cfi_endproc
 333              	.LFE368:
 335              		.section	.text.sys_timeouts_init,"ax",%progbits
 336              		.align	1
ARM GAS  /tmp/ccauiiuq.s 			page 13


 337              		.global	sys_timeouts_init
 338              		.syntax unified
 339              		.thumb
 340              		.thumb_func
 342              	sys_timeouts_init:
 343              	.LFB367:
 265:../../Middlewares/Third_Party/LwIP/src/core/timeouts.c ****   size_t i;
 344              		.loc 1 265 1 is_stmt 1 view -0
 345              		.cfi_startproc
 346              		@ args = 0, pretend = 0, frame = 0
 347              		@ frame_needed = 0, uses_anonymous_args = 0
 348 0000 10B5     		push	{r4, lr}
 349              	.LCFI3:
 350              		.cfi_def_cfa_offset 8
 351              		.cfi_offset 4, -8
 352              		.cfi_offset 14, -4
 266:../../Middlewares/Third_Party/LwIP/src/core/timeouts.c ****   /* tcp_tmr() at index 0 is started on demand */
 353              		.loc 1 266 3 view .LVU92
 268:../../Middlewares/Third_Party/LwIP/src/core/timeouts.c ****     /* we have to cast via size_t to get rid of const warning
 354              		.loc 1 268 3 view .LVU93
 355              	.LVL32:
 268:../../Middlewares/Third_Party/LwIP/src/core/timeouts.c ****     /* we have to cast via size_t to get rid of const warning
 356              		.loc 1 268 10 is_stmt 0 view .LVU94
 357 0002 0024     		movs	r4, #0
 268:../../Middlewares/Third_Party/LwIP/src/core/timeouts.c ****     /* we have to cast via size_t to get rid of const warning
 358              		.loc 1 268 3 view .LVU95
 359 0004 08E0     		b	.L27
 360              	.LVL33:
 361              	.L28:
 271:../../Middlewares/Third_Party/LwIP/src/core/timeouts.c ****   }
 362              		.loc 1 271 5 is_stmt 1 view .LVU96
 271:../../Middlewares/Third_Party/LwIP/src/core/timeouts.c ****   }
 363              		.loc 1 271 38 is_stmt 0 view .LVU97
 364 0006 064B     		ldr	r3, .L30
 271:../../Middlewares/Third_Party/LwIP/src/core/timeouts.c ****   }
 365              		.loc 1 271 5 view .LVU98
 366 0008 03EBC402 		add	r2, r3, r4, lsl #3
 367 000c 0549     		ldr	r1, .L30+4
 368 000e 53F83400 		ldr	r0, [r3, r4, lsl #3]
 369 0012 FFF7FEFF 		bl	sys_timeout
 370              	.LVL34:
 268:../../Middlewares/Third_Party/LwIP/src/core/timeouts.c ****     /* we have to cast via size_t to get rid of const warning
 371              		.loc 1 268 73 is_stmt 1 discriminator 3 view .LVU99
 372 0016 0134     		adds	r4, r4, #1
 373              	.LVL35:
 374              	.L27:
 268:../../Middlewares/Third_Party/LwIP/src/core/timeouts.c ****     /* we have to cast via size_t to get rid of const warning
 375              		.loc 1 268 34 discriminator 1 view .LVU100
 376 0018 012C     		cmp	r4, #1
 377 001a F4D9     		bls	.L28
 273:../../Middlewares/Third_Party/LwIP/src/core/timeouts.c **** 
 378              		.loc 1 273 1 is_stmt 0 view .LVU101
 379 001c 10BD     		pop	{r4, pc}
 380              	.LVL36:
 381              	.L31:
 273:../../Middlewares/Third_Party/LwIP/src/core/timeouts.c **** 
 382              		.loc 1 273 1 view .LVU102
ARM GAS  /tmp/ccauiiuq.s 			page 14


 383 001e 00BF     		.align	2
 384              	.L30:
 385 0020 00000000 		.word	lwip_cyclic_timers
 386 0024 00000000 		.word	lwip_cyclic_timer
 387              		.cfi_endproc
 388              	.LFE367:
 390              		.section	.text.sys_untimeout,"ax",%progbits
 391              		.align	1
 392              		.global	sys_untimeout
 393              		.syntax unified
 394              		.thumb
 395              		.thumb_func
 397              	sys_untimeout:
 398              	.LVL37:
 399              	.LFB369:
 307:../../Middlewares/Third_Party/LwIP/src/core/timeouts.c **** 
 308:../../Middlewares/Third_Party/LwIP/src/core/timeouts.c **** /**
 309:../../Middlewares/Third_Party/LwIP/src/core/timeouts.c ****  * Go through timeout list (for this task only) and remove the first matching
 310:../../Middlewares/Third_Party/LwIP/src/core/timeouts.c ****  * entry (subsequent entries remain untouched), even though the timeout has not
 311:../../Middlewares/Third_Party/LwIP/src/core/timeouts.c ****  * triggered yet.
 312:../../Middlewares/Third_Party/LwIP/src/core/timeouts.c ****  *
 313:../../Middlewares/Third_Party/LwIP/src/core/timeouts.c ****  * @param handler callback function that would be called by the timeout
 314:../../Middlewares/Third_Party/LwIP/src/core/timeouts.c ****  * @param arg callback argument that would be passed to handler
 315:../../Middlewares/Third_Party/LwIP/src/core/timeouts.c **** */
 316:../../Middlewares/Third_Party/LwIP/src/core/timeouts.c **** void
 317:../../Middlewares/Third_Party/LwIP/src/core/timeouts.c **** sys_untimeout(sys_timeout_handler handler, void *arg)
 318:../../Middlewares/Third_Party/LwIP/src/core/timeouts.c **** {
 400              		.loc 1 318 1 is_stmt 1 view -0
 401              		.cfi_startproc
 402              		@ args = 0, pretend = 0, frame = 0
 403              		@ frame_needed = 0, uses_anonymous_args = 0
 319:../../Middlewares/Third_Party/LwIP/src/core/timeouts.c ****   struct sys_timeo *prev_t, *t;
 404              		.loc 1 319 3 view .LVU104
 320:../../Middlewares/Third_Party/LwIP/src/core/timeouts.c **** 
 321:../../Middlewares/Third_Party/LwIP/src/core/timeouts.c ****   LWIP_ASSERT_CORE_LOCKED();
 405              		.loc 1 321 28 view .LVU105
 322:../../Middlewares/Third_Party/LwIP/src/core/timeouts.c **** 
 323:../../Middlewares/Third_Party/LwIP/src/core/timeouts.c ****   if (next_timeout == NULL) {
 406              		.loc 1 323 3 view .LVU106
 407              		.loc 1 323 20 is_stmt 0 view .LVU107
 408 0000 0E4B     		ldr	r3, .L44
 409 0002 1B68     		ldr	r3, [r3]
 410              		.loc 1 323 6 view .LVU108
 411 0004 C3B1     		cbz	r3, .L40
 318:../../Middlewares/Third_Party/LwIP/src/core/timeouts.c ****   struct sys_timeo *prev_t, *t;
 412              		.loc 1 318 1 view .LVU109
 413 0006 10B5     		push	{r4, lr}
 414              	.LCFI4:
 415              		.cfi_def_cfa_offset 8
 416              		.cfi_offset 4, -8
 417              		.cfi_offset 14, -4
 324:../../Middlewares/Third_Party/LwIP/src/core/timeouts.c ****     return;
 325:../../Middlewares/Third_Party/LwIP/src/core/timeouts.c ****   }
 326:../../Middlewares/Third_Party/LwIP/src/core/timeouts.c **** 
 327:../../Middlewares/Third_Party/LwIP/src/core/timeouts.c ****   for (t = next_timeout, prev_t = NULL; t != NULL; prev_t = t, t = t->next) {
 418              		.loc 1 327 33 view .LVU110
 419 0008 0024     		movs	r4, #0
ARM GAS  /tmp/ccauiiuq.s 			page 15


 420 000a 05E0     		b	.L34
 421              	.LVL38:
 422              	.L43:
 328:../../Middlewares/Third_Party/LwIP/src/core/timeouts.c ****     if ((t->h == handler) && (t->arg == arg)) {
 329:../../Middlewares/Third_Party/LwIP/src/core/timeouts.c ****       /* We have a match */
 330:../../Middlewares/Third_Party/LwIP/src/core/timeouts.c ****       /* Unlink from previous in list */
 331:../../Middlewares/Third_Party/LwIP/src/core/timeouts.c ****       if (prev_t == NULL) {
 332:../../Middlewares/Third_Party/LwIP/src/core/timeouts.c ****         next_timeout = t->next;
 423              		.loc 1 332 9 is_stmt 1 view .LVU111
 424              		.loc 1 332 25 is_stmt 0 view .LVU112
 425 000c 1968     		ldr	r1, [r3]
 426              	.LVL39:
 427              		.loc 1 332 22 view .LVU113
 428 000e 0B4A     		ldr	r2, .L44
 429 0010 1160     		str	r1, [r2]
 430 0012 0CE0     		b	.L37
 431              	.LVL40:
 432              	.L35:
 327:../../Middlewares/Third_Party/LwIP/src/core/timeouts.c ****     if ((t->h == handler) && (t->arg == arg)) {
 433              		.loc 1 327 62 is_stmt 1 discriminator 2 view .LVU114
 327:../../Middlewares/Third_Party/LwIP/src/core/timeouts.c ****     if ((t->h == handler) && (t->arg == arg)) {
 434              		.loc 1 327 59 is_stmt 0 discriminator 2 view .LVU115
 435 0014 1C46     		mov	r4, r3
 327:../../Middlewares/Third_Party/LwIP/src/core/timeouts.c ****     if ((t->h == handler) && (t->arg == arg)) {
 436              		.loc 1 327 66 discriminator 2 view .LVU116
 437 0016 1B68     		ldr	r3, [r3]
 438              	.LVL41:
 439              	.L34:
 327:../../Middlewares/Third_Party/LwIP/src/core/timeouts.c ****     if ((t->h == handler) && (t->arg == arg)) {
 440              		.loc 1 327 43 is_stmt 1 discriminator 1 view .LVU117
 441 0018 6BB1     		cbz	r3, .L32
 328:../../Middlewares/Third_Party/LwIP/src/core/timeouts.c ****     if ((t->h == handler) && (t->arg == arg)) {
 442              		.loc 1 328 5 view .LVU118
 328:../../Middlewares/Third_Party/LwIP/src/core/timeouts.c ****     if ((t->h == handler) && (t->arg == arg)) {
 443              		.loc 1 328 11 is_stmt 0 view .LVU119
 444 001a 9A68     		ldr	r2, [r3, #8]
 328:../../Middlewares/Third_Party/LwIP/src/core/timeouts.c ****     if ((t->h == handler) && (t->arg == arg)) {
 445              		.loc 1 328 8 view .LVU120
 446 001c 8242     		cmp	r2, r0
 447 001e F9D1     		bne	.L35
 328:../../Middlewares/Third_Party/LwIP/src/core/timeouts.c ****     if ((t->h == handler) && (t->arg == arg)) {
 448              		.loc 1 328 32 discriminator 1 view .LVU121
 449 0020 DA68     		ldr	r2, [r3, #12]
 328:../../Middlewares/Third_Party/LwIP/src/core/timeouts.c ****     if ((t->h == handler) && (t->arg == arg)) {
 450              		.loc 1 328 27 discriminator 1 view .LVU122
 451 0022 8A42     		cmp	r2, r1
 452 0024 F6D1     		bne	.L35
 331:../../Middlewares/Third_Party/LwIP/src/core/timeouts.c ****         next_timeout = t->next;
 453              		.loc 1 331 7 is_stmt 1 view .LVU123
 331:../../Middlewares/Third_Party/LwIP/src/core/timeouts.c ****         next_timeout = t->next;
 454              		.loc 1 331 10 is_stmt 0 view .LVU124
 455 0026 002C     		cmp	r4, #0
 456 0028 F0D0     		beq	.L43
 333:../../Middlewares/Third_Party/LwIP/src/core/timeouts.c ****       } else {
 334:../../Middlewares/Third_Party/LwIP/src/core/timeouts.c ****         prev_t->next = t->next;
 457              		.loc 1 334 9 is_stmt 1 view .LVU125
 458              		.loc 1 334 25 is_stmt 0 view .LVU126
ARM GAS  /tmp/ccauiiuq.s 			page 16


 459 002a 1A68     		ldr	r2, [r3]
 460              		.loc 1 334 22 view .LVU127
 461 002c 2260     		str	r2, [r4]
 462              	.LVL42:
 463              	.L37:
 335:../../Middlewares/Third_Party/LwIP/src/core/timeouts.c ****       }
 336:../../Middlewares/Third_Party/LwIP/src/core/timeouts.c ****       memp_free(MEMP_SYS_TIMEOUT, t);
 464              		.loc 1 336 7 is_stmt 1 view .LVU128
 465 002e 1946     		mov	r1, r3
 466 0030 0720     		movs	r0, #7
 467              	.LVL43:
 468              		.loc 1 336 7 is_stmt 0 view .LVU129
 469 0032 FFF7FEFF 		bl	memp_free
 470              	.LVL44:
 337:../../Middlewares/Third_Party/LwIP/src/core/timeouts.c ****       return;
 471              		.loc 1 337 7 is_stmt 1 view .LVU130
 472              	.L32:
 338:../../Middlewares/Third_Party/LwIP/src/core/timeouts.c ****     }
 339:../../Middlewares/Third_Party/LwIP/src/core/timeouts.c ****   }
 340:../../Middlewares/Third_Party/LwIP/src/core/timeouts.c ****   return;
 341:../../Middlewares/Third_Party/LwIP/src/core/timeouts.c **** }
 473              		.loc 1 341 1 is_stmt 0 view .LVU131
 474 0036 10BD     		pop	{r4, pc}
 475              	.LVL45:
 476              	.L40:
 477              	.LCFI5:
 478              		.cfi_def_cfa_offset 0
 479              		.cfi_restore 4
 480              		.cfi_restore 14
 481              		.loc 1 341 1 view .LVU132
 482 0038 7047     		bx	lr
 483              	.L45:
 484 003a 00BF     		.align	2
 485              	.L44:
 486 003c 00000000 		.word	next_timeout
 487              		.cfi_endproc
 488              	.LFE369:
 490              		.section	.text.sys_check_timeouts,"ax",%progbits
 491              		.align	1
 492              		.global	sys_check_timeouts
 493              		.syntax unified
 494              		.thumb
 495              		.thumb_func
 497              	sys_check_timeouts:
 498              	.LFB370:
 342:../../Middlewares/Third_Party/LwIP/src/core/timeouts.c **** 
 343:../../Middlewares/Third_Party/LwIP/src/core/timeouts.c **** /**
 344:../../Middlewares/Third_Party/LwIP/src/core/timeouts.c ****  * @ingroup lwip_nosys
 345:../../Middlewares/Third_Party/LwIP/src/core/timeouts.c ****  * Handle timeouts for NO_SYS==1 (i.e. without using
 346:../../Middlewares/Third_Party/LwIP/src/core/timeouts.c ****  * tcpip_thread/sys_timeouts_mbox_fetch(). Uses sys_now() to call timeout
 347:../../Middlewares/Third_Party/LwIP/src/core/timeouts.c ****  * handler functions when timeouts expire.
 348:../../Middlewares/Third_Party/LwIP/src/core/timeouts.c ****  *
 349:../../Middlewares/Third_Party/LwIP/src/core/timeouts.c ****  * Must be called periodically from your main loop.
 350:../../Middlewares/Third_Party/LwIP/src/core/timeouts.c ****  */
 351:../../Middlewares/Third_Party/LwIP/src/core/timeouts.c **** void
 352:../../Middlewares/Third_Party/LwIP/src/core/timeouts.c **** sys_check_timeouts(void)
 353:../../Middlewares/Third_Party/LwIP/src/core/timeouts.c **** {
ARM GAS  /tmp/ccauiiuq.s 			page 17


 499              		.loc 1 353 1 is_stmt 1 view -0
 500              		.cfi_startproc
 501              		@ args = 0, pretend = 0, frame = 0
 502              		@ frame_needed = 0, uses_anonymous_args = 0
 503 0000 70B5     		push	{r4, r5, r6, lr}
 504              	.LCFI6:
 505              		.cfi_def_cfa_offset 16
 506              		.cfi_offset 4, -16
 507              		.cfi_offset 5, -12
 508              		.cfi_offset 6, -8
 509              		.cfi_offset 14, -4
 354:../../Middlewares/Third_Party/LwIP/src/core/timeouts.c ****   u32_t now;
 510              		.loc 1 354 3 view .LVU134
 355:../../Middlewares/Third_Party/LwIP/src/core/timeouts.c **** 
 356:../../Middlewares/Third_Party/LwIP/src/core/timeouts.c ****   LWIP_ASSERT_CORE_LOCKED();
 511              		.loc 1 356 28 view .LVU135
 357:../../Middlewares/Third_Party/LwIP/src/core/timeouts.c **** 
 358:../../Middlewares/Third_Party/LwIP/src/core/timeouts.c ****   /* Process only timers expired at the start of the function. */
 359:../../Middlewares/Third_Party/LwIP/src/core/timeouts.c ****   now = sys_now();
 512              		.loc 1 359 3 view .LVU136
 513              		.loc 1 359 9 is_stmt 0 view .LVU137
 514 0002 FFF7FEFF 		bl	sys_now
 515              	.LVL46:
 516 0006 0546     		mov	r5, r0
 517              	.LVL47:
 518              	.L48:
 360:../../Middlewares/Third_Party/LwIP/src/core/timeouts.c **** 
 361:../../Middlewares/Third_Party/LwIP/src/core/timeouts.c ****   do {
 519              		.loc 1 361 3 is_stmt 1 view .LVU138
 520              	.LBB2:
 362:../../Middlewares/Third_Party/LwIP/src/core/timeouts.c ****     struct sys_timeo *tmptimeout;
 521              		.loc 1 362 5 view .LVU139
 363:../../Middlewares/Third_Party/LwIP/src/core/timeouts.c ****     sys_timeout_handler handler;
 522              		.loc 1 363 5 view .LVU140
 364:../../Middlewares/Third_Party/LwIP/src/core/timeouts.c ****     void *arg;
 523              		.loc 1 364 5 view .LVU141
 365:../../Middlewares/Third_Party/LwIP/src/core/timeouts.c **** 
 366:../../Middlewares/Third_Party/LwIP/src/core/timeouts.c ****     PBUF_CHECK_FREE_OOSEQ();
 524              		.loc 1 366 28 view .LVU142
 367:../../Middlewares/Third_Party/LwIP/src/core/timeouts.c **** 
 368:../../Middlewares/Third_Party/LwIP/src/core/timeouts.c ****     tmptimeout = next_timeout;
 525              		.loc 1 368 5 view .LVU143
 526              		.loc 1 368 16 is_stmt 0 view .LVU144
 527 0008 0B4B     		ldr	r3, .L51
 528 000a 1968     		ldr	r1, [r3]
 529              	.LVL48:
 369:../../Middlewares/Third_Party/LwIP/src/core/timeouts.c ****     if (tmptimeout == NULL) {
 530              		.loc 1 369 5 is_stmt 1 view .LVU145
 531              		.loc 1 369 8 is_stmt 0 view .LVU146
 532 000c 91B1     		cbz	r1, .L46
 370:../../Middlewares/Third_Party/LwIP/src/core/timeouts.c ****       return;
 371:../../Middlewares/Third_Party/LwIP/src/core/timeouts.c ****     }
 372:../../Middlewares/Third_Party/LwIP/src/core/timeouts.c **** 
 373:../../Middlewares/Third_Party/LwIP/src/core/timeouts.c ****     if (TIME_LESS_THAN(now, tmptimeout->time)) {
 533              		.loc 1 373 5 is_stmt 1 view .LVU147
 534              		.loc 1 373 9 is_stmt 0 view .LVU148
 535 000e 4B68     		ldr	r3, [r1, #4]
ARM GAS  /tmp/ccauiiuq.s 			page 18


 536 0010 EA1A     		subs	r2, r5, r3
 537              		.loc 1 373 8 view .LVU149
 538 0012 002A     		cmp	r2, #0
 539 0014 0EDB     		blt	.L46
 374:../../Middlewares/Third_Party/LwIP/src/core/timeouts.c ****       return;
 375:../../Middlewares/Third_Party/LwIP/src/core/timeouts.c ****     }
 376:../../Middlewares/Third_Party/LwIP/src/core/timeouts.c **** 
 377:../../Middlewares/Third_Party/LwIP/src/core/timeouts.c ****     /* Timeout has expired */
 378:../../Middlewares/Third_Party/LwIP/src/core/timeouts.c ****     next_timeout = tmptimeout->next;
 540              		.loc 1 378 5 is_stmt 1 view .LVU150
 541              		.loc 1 378 30 is_stmt 0 view .LVU151
 542 0016 0868     		ldr	r0, [r1]
 543              		.loc 1 378 18 view .LVU152
 544 0018 074A     		ldr	r2, .L51
 545 001a 1060     		str	r0, [r2]
 379:../../Middlewares/Third_Party/LwIP/src/core/timeouts.c ****     handler = tmptimeout->h;
 546              		.loc 1 379 5 is_stmt 1 view .LVU153
 547              		.loc 1 379 13 is_stmt 0 view .LVU154
 548 001c 8C68     		ldr	r4, [r1, #8]
 549              	.LVL49:
 380:../../Middlewares/Third_Party/LwIP/src/core/timeouts.c ****     arg = tmptimeout->arg;
 550              		.loc 1 380 5 is_stmt 1 view .LVU155
 551              		.loc 1 380 9 is_stmt 0 view .LVU156
 552 001e CE68     		ldr	r6, [r1, #12]
 553              	.LVL50:
 381:../../Middlewares/Third_Party/LwIP/src/core/timeouts.c ****     current_timeout_due_time = tmptimeout->time;
 554              		.loc 1 381 5 is_stmt 1 view .LVU157
 555              		.loc 1 381 30 is_stmt 0 view .LVU158
 556 0020 064A     		ldr	r2, .L51+4
 557 0022 1360     		str	r3, [r2]
 382:../../Middlewares/Third_Party/LwIP/src/core/timeouts.c **** #if LWIP_DEBUG_TIMERNAMES
 383:../../Middlewares/Third_Party/LwIP/src/core/timeouts.c ****     if (handler != NULL) {
 384:../../Middlewares/Third_Party/LwIP/src/core/timeouts.c ****       LWIP_DEBUGF(TIMERS_DEBUG, ("sct calling h=%s t=%"U32_F" arg=%p\n",
 385:../../Middlewares/Third_Party/LwIP/src/core/timeouts.c ****                                  tmptimeout->handler_name, sys_now() - tmptimeout->time, arg));
 386:../../Middlewares/Third_Party/LwIP/src/core/timeouts.c ****     }
 387:../../Middlewares/Third_Party/LwIP/src/core/timeouts.c **** #endif /* LWIP_DEBUG_TIMERNAMES */
 388:../../Middlewares/Third_Party/LwIP/src/core/timeouts.c ****     memp_free(MEMP_SYS_TIMEOUT, tmptimeout);
 558              		.loc 1 388 5 is_stmt 1 view .LVU159
 559 0024 0720     		movs	r0, #7
 560 0026 FFF7FEFF 		bl	memp_free
 561              	.LVL51:
 389:../../Middlewares/Third_Party/LwIP/src/core/timeouts.c ****     if (handler != NULL) {
 562              		.loc 1 389 5 view .LVU160
 563              		.loc 1 389 8 is_stmt 0 view .LVU161
 564 002a 002C     		cmp	r4, #0
 565 002c ECD0     		beq	.L48
 390:../../Middlewares/Third_Party/LwIP/src/core/timeouts.c ****       handler(arg);
 566              		.loc 1 390 7 is_stmt 1 view .LVU162
 567 002e 3046     		mov	r0, r6
 568 0030 A047     		blx	r4
 569              	.LVL52:
 570 0032 E9E7     		b	.L48
 571              	.LVL53:
 572              	.L46:
 573              		.loc 1 390 7 is_stmt 0 view .LVU163
 574              	.LBE2:
 391:../../Middlewares/Third_Party/LwIP/src/core/timeouts.c ****     }
ARM GAS  /tmp/ccauiiuq.s 			page 19


 392:../../Middlewares/Third_Party/LwIP/src/core/timeouts.c ****     LWIP_TCPIP_THREAD_ALIVE();
 393:../../Middlewares/Third_Party/LwIP/src/core/timeouts.c **** 
 394:../../Middlewares/Third_Party/LwIP/src/core/timeouts.c ****     /* Repeat until all expired timers have been called */
 395:../../Middlewares/Third_Party/LwIP/src/core/timeouts.c ****   } while (1);
 396:../../Middlewares/Third_Party/LwIP/src/core/timeouts.c **** }
 575              		.loc 1 396 1 view .LVU164
 576 0034 70BD     		pop	{r4, r5, r6, pc}
 577              	.LVL54:
 578              	.L52:
 579              		.loc 1 396 1 view .LVU165
 580 0036 00BF     		.align	2
 581              	.L51:
 582 0038 00000000 		.word	next_timeout
 583 003c 00000000 		.word	current_timeout_due_time
 584              		.cfi_endproc
 585              	.LFE370:
 587              		.section	.text.sys_restart_timeouts,"ax",%progbits
 588              		.align	1
 589              		.global	sys_restart_timeouts
 590              		.syntax unified
 591              		.thumb
 592              		.thumb_func
 594              	sys_restart_timeouts:
 595              	.LFB371:
 397:../../Middlewares/Third_Party/LwIP/src/core/timeouts.c **** 
 398:../../Middlewares/Third_Party/LwIP/src/core/timeouts.c **** /** Rebase the timeout times to the current time.
 399:../../Middlewares/Third_Party/LwIP/src/core/timeouts.c ****  * This is necessary if sys_check_timeouts() hasn't been called for a long
 400:../../Middlewares/Third_Party/LwIP/src/core/timeouts.c ****  * time (e.g. while saving energy) to prevent all timer functions of that
 401:../../Middlewares/Third_Party/LwIP/src/core/timeouts.c ****  * period being called.
 402:../../Middlewares/Third_Party/LwIP/src/core/timeouts.c ****  */
 403:../../Middlewares/Third_Party/LwIP/src/core/timeouts.c **** void
 404:../../Middlewares/Third_Party/LwIP/src/core/timeouts.c **** sys_restart_timeouts(void)
 405:../../Middlewares/Third_Party/LwIP/src/core/timeouts.c **** {
 596              		.loc 1 405 1 is_stmt 1 view -0
 597              		.cfi_startproc
 598              		@ args = 0, pretend = 0, frame = 0
 599              		@ frame_needed = 0, uses_anonymous_args = 0
 600 0000 08B5     		push	{r3, lr}
 601              	.LCFI7:
 602              		.cfi_def_cfa_offset 8
 603              		.cfi_offset 3, -8
 604              		.cfi_offset 14, -4
 406:../../Middlewares/Third_Party/LwIP/src/core/timeouts.c ****   u32_t now;
 605              		.loc 1 406 3 view .LVU167
 407:../../Middlewares/Third_Party/LwIP/src/core/timeouts.c ****   u32_t base;
 606              		.loc 1 407 3 view .LVU168
 408:../../Middlewares/Third_Party/LwIP/src/core/timeouts.c ****   struct sys_timeo *t;
 607              		.loc 1 408 3 view .LVU169
 409:../../Middlewares/Third_Party/LwIP/src/core/timeouts.c **** 
 410:../../Middlewares/Third_Party/LwIP/src/core/timeouts.c ****   if (next_timeout == NULL) {
 608              		.loc 1 410 3 view .LVU170
 609              		.loc 1 410 20 is_stmt 0 view .LVU171
 610 0002 084B     		ldr	r3, .L58
 611 0004 1B68     		ldr	r3, [r3]
 612              		.loc 1 410 6 view .LVU172
 613 0006 63B1     		cbz	r3, .L53
 411:../../Middlewares/Third_Party/LwIP/src/core/timeouts.c ****     return;
ARM GAS  /tmp/ccauiiuq.s 			page 20


 412:../../Middlewares/Third_Party/LwIP/src/core/timeouts.c ****   }
 413:../../Middlewares/Third_Party/LwIP/src/core/timeouts.c **** 
 414:../../Middlewares/Third_Party/LwIP/src/core/timeouts.c ****   now = sys_now();
 614              		.loc 1 414 3 is_stmt 1 view .LVU173
 615              		.loc 1 414 9 is_stmt 0 view .LVU174
 616 0008 FFF7FEFF 		bl	sys_now
 617              	.LVL55:
 415:../../Middlewares/Third_Party/LwIP/src/core/timeouts.c ****   base = next_timeout->time;
 618              		.loc 1 415 3 is_stmt 1 view .LVU175
 619              		.loc 1 415 22 is_stmt 0 view .LVU176
 620 000c 054B     		ldr	r3, .L58
 621 000e 1A68     		ldr	r2, [r3]
 622              		.loc 1 415 8 view .LVU177
 623 0010 5168     		ldr	r1, [r2, #4]
 624              	.LVL56:
 416:../../Middlewares/Third_Party/LwIP/src/core/timeouts.c **** 
 417:../../Middlewares/Third_Party/LwIP/src/core/timeouts.c ****   for (t = next_timeout; t != NULL; t = t->next) {
 625              		.loc 1 417 3 is_stmt 1 view .LVU178
 626              		.loc 1 417 3 is_stmt 0 view .LVU179
 627 0012 04E0     		b	.L55
 628              	.L56:
 418:../../Middlewares/Third_Party/LwIP/src/core/timeouts.c ****     t->time = (t->time - base) + now;
 629              		.loc 1 418 5 is_stmt 1 view .LVU180
 630              		.loc 1 418 17 is_stmt 0 view .LVU181
 631 0014 5368     		ldr	r3, [r2, #4]
 632              		.loc 1 418 24 view .LVU182
 633 0016 5B1A     		subs	r3, r3, r1
 634              		.loc 1 418 32 view .LVU183
 635 0018 0344     		add	r3, r3, r0
 636              		.loc 1 418 13 view .LVU184
 637 001a 5360     		str	r3, [r2, #4]
 417:../../Middlewares/Third_Party/LwIP/src/core/timeouts.c ****     t->time = (t->time - base) + now;
 638              		.loc 1 417 39 is_stmt 1 discriminator 3 view .LVU185
 639 001c 1268     		ldr	r2, [r2]
 640              	.LVL57:
 641              	.L55:
 417:../../Middlewares/Third_Party/LwIP/src/core/timeouts.c ****     t->time = (t->time - base) + now;
 642              		.loc 1 417 28 discriminator 1 view .LVU186
 643 001e 002A     		cmp	r2, #0
 644 0020 F8D1     		bne	.L56
 645              	.LVL58:
 646              	.L53:
 419:../../Middlewares/Third_Party/LwIP/src/core/timeouts.c ****   }
 420:../../Middlewares/Third_Party/LwIP/src/core/timeouts.c **** }
 647              		.loc 1 420 1 is_stmt 0 view .LVU187
 648 0022 08BD     		pop	{r3, pc}
 649              	.L59:
 650              		.align	2
 651              	.L58:
 652 0024 00000000 		.word	next_timeout
 653              		.cfi_endproc
 654              	.LFE371:
 656              		.section	.rodata.sys_timeouts_sleeptime.str1.4,"aMS",%progbits,1
 657              		.align	2
 658              	.LC4:
 659 0000 696E7661 		.ascii	"invalid sleeptime\000"
 659      6C696420 
ARM GAS  /tmp/ccauiiuq.s 			page 21


 659      736C6565 
 659      7074696D 
 659      6500
 660              		.section	.text.sys_timeouts_sleeptime,"ax",%progbits
 661              		.align	1
 662              		.global	sys_timeouts_sleeptime
 663              		.syntax unified
 664              		.thumb
 665              		.thumb_func
 667              	sys_timeouts_sleeptime:
 668              	.LFB372:
 421:../../Middlewares/Third_Party/LwIP/src/core/timeouts.c **** 
 422:../../Middlewares/Third_Party/LwIP/src/core/timeouts.c **** /** Return the time left before the next timeout is due. If no timeouts are
 423:../../Middlewares/Third_Party/LwIP/src/core/timeouts.c ****  * enqueued, returns 0xffffffff
 424:../../Middlewares/Third_Party/LwIP/src/core/timeouts.c ****  */
 425:../../Middlewares/Third_Party/LwIP/src/core/timeouts.c **** u32_t
 426:../../Middlewares/Third_Party/LwIP/src/core/timeouts.c **** sys_timeouts_sleeptime(void)
 427:../../Middlewares/Third_Party/LwIP/src/core/timeouts.c **** {
 669              		.loc 1 427 1 is_stmt 1 view -0
 670              		.cfi_startproc
 671              		@ args = 0, pretend = 0, frame = 0
 672              		@ frame_needed = 0, uses_anonymous_args = 0
 673 0000 10B5     		push	{r4, lr}
 674              	.LCFI8:
 675              		.cfi_def_cfa_offset 8
 676              		.cfi_offset 4, -8
 677              		.cfi_offset 14, -4
 428:../../Middlewares/Third_Party/LwIP/src/core/timeouts.c ****   u32_t now;
 678              		.loc 1 428 3 view .LVU189
 429:../../Middlewares/Third_Party/LwIP/src/core/timeouts.c **** 
 430:../../Middlewares/Third_Party/LwIP/src/core/timeouts.c ****   LWIP_ASSERT_CORE_LOCKED();
 679              		.loc 1 430 28 view .LVU190
 431:../../Middlewares/Third_Party/LwIP/src/core/timeouts.c **** 
 432:../../Middlewares/Third_Party/LwIP/src/core/timeouts.c ****   if (next_timeout == NULL) {
 680              		.loc 1 432 3 view .LVU191
 681              		.loc 1 432 20 is_stmt 0 view .LVU192
 682 0002 0D4B     		ldr	r3, .L66
 683 0004 1B68     		ldr	r3, [r3]
 684              		.loc 1 432 6 view .LVU193
 685 0006 83B1     		cbz	r3, .L63
 433:../../Middlewares/Third_Party/LwIP/src/core/timeouts.c ****     return SYS_TIMEOUTS_SLEEPTIME_INFINITE;
 434:../../Middlewares/Third_Party/LwIP/src/core/timeouts.c ****   }
 435:../../Middlewares/Third_Party/LwIP/src/core/timeouts.c ****   now = sys_now();
 686              		.loc 1 435 3 is_stmt 1 view .LVU194
 687              		.loc 1 435 9 is_stmt 0 view .LVU195
 688 0008 FFF7FEFF 		bl	sys_now
 689              	.LVL59:
 436:../../Middlewares/Third_Party/LwIP/src/core/timeouts.c ****   if (TIME_LESS_THAN(next_timeout->time, now)) {
 690              		.loc 1 436 3 is_stmt 1 view .LVU196
 691              		.loc 1 436 7 is_stmt 0 view .LVU197
 692 000c 0A4B     		ldr	r3, .L66
 693 000e 1B68     		ldr	r3, [r3]
 694 0010 5C68     		ldr	r4, [r3, #4]
 695              		.loc 1 436 6 view .LVU198
 696 0012 241A     		subs	r4, r4, r0
 697 0014 0CD4     		bmi	.L64
 698              	.LBB3:
ARM GAS  /tmp/ccauiiuq.s 			page 22


 437:../../Middlewares/Third_Party/LwIP/src/core/timeouts.c ****     return 0;
 438:../../Middlewares/Third_Party/LwIP/src/core/timeouts.c ****   } else {
 439:../../Middlewares/Third_Party/LwIP/src/core/timeouts.c ****     u32_t ret = (u32_t)(next_timeout->time - now);
 699              		.loc 1 439 5 is_stmt 1 view .LVU199
 700              	.LVL60:
 440:../../Middlewares/Third_Party/LwIP/src/core/timeouts.c ****     LWIP_ASSERT("invalid sleeptime", ret <= LWIP_MAX_TIMEOUT);
 701              		.loc 1 440 5 view .LVU200
 702              		.loc 1 440 5 view .LVU201
 703 0016 002C     		cmp	r4, #0
 704 0018 0BDA     		bge	.L60
 705              		.loc 1 440 5 discriminator 1 view .LVU202
 706              		.loc 1 440 5 discriminator 1 view .LVU203
 707 001a 084B     		ldr	r3, .L66+4
 708 001c 4FF4DC72 		mov	r2, #440
 709 0020 0749     		ldr	r1, .L66+8
 710 0022 0848     		ldr	r0, .L66+12
 711              	.LVL61:
 712              		.loc 1 440 5 is_stmt 0 discriminator 1 view .LVU204
 713 0024 FFF7FEFF 		bl	printf
 714              	.LVL62:
 715              		.loc 1 440 5 is_stmt 1 discriminator 3 view .LVU205
 716              		.loc 1 440 5 discriminator 3 view .LVU206
 441:../../Middlewares/Third_Party/LwIP/src/core/timeouts.c ****     return ret;
 717              		.loc 1 441 5 view .LVU207
 718              		.loc 1 441 12 is_stmt 0 view .LVU208
 719 0028 03E0     		b	.L60
 720              	.LVL63:
 721              	.L63:
 722              		.loc 1 441 12 view .LVU209
 723              	.LBE3:
 433:../../Middlewares/Third_Party/LwIP/src/core/timeouts.c ****   }
 724              		.loc 1 433 12 view .LVU210
 725 002a 4FF0FF34 		mov	r4, #-1
 726 002e 00E0     		b	.L60
 727              	.LVL64:
 728              	.L64:
 437:../../Middlewares/Third_Party/LwIP/src/core/timeouts.c ****   } else {
 729              		.loc 1 437 12 view .LVU211
 730 0030 0024     		movs	r4, #0
 731              	.LVL65:
 732              	.L60:
 442:../../Middlewares/Third_Party/LwIP/src/core/timeouts.c ****   }
 443:../../Middlewares/Third_Party/LwIP/src/core/timeouts.c **** }
 733              		.loc 1 443 1 view .LVU212
 734 0032 2046     		mov	r0, r4
 735 0034 10BD     		pop	{r4, pc}
 736              	.L67:
 737 0036 00BF     		.align	2
 738              	.L66:
 739 0038 00000000 		.word	next_timeout
 740 003c 00000000 		.word	.LC0
 741 0040 00000000 		.word	.LC4
 742 0044 78000000 		.word	.LC2
 743              		.cfi_endproc
 744              	.LFE372:
 746              		.section	.bss.current_timeout_due_time,"aw",%nobits
 747              		.align	2
ARM GAS  /tmp/ccauiiuq.s 			page 23


 750              	current_timeout_due_time:
 751 0000 00000000 		.space	4
 752              		.section	.bss.next_timeout,"aw",%nobits
 753              		.align	2
 756              	next_timeout:
 757 0000 00000000 		.space	4
 758              		.global	lwip_num_cyclic_timers
 759              		.section	.rodata.lwip_num_cyclic_timers,"a"
 760              		.align	2
 763              	lwip_num_cyclic_timers:
 764 0000 02000000 		.word	2
 765              		.global	lwip_cyclic_timers
 766              		.section	.rodata.lwip_cyclic_timers,"a"
 767              		.align	2
 770              	lwip_cyclic_timers:
 771 0000 E8030000 		.word	1000
 772 0004 00000000 		.word	ip_reass_tmr
 773 0008 E8030000 		.word	1000
 774 000c 00000000 		.word	etharp_tmr
 775              		.text
 776              	.Letext0:
 777              		.file 2 "/usr/lib/gcc/arm-none-eabi/13.2.1/include/stdint.h"
 778              		.file 3 "/usr/lib/gcc/arm-none-eabi/13.2.1/include/stddef.h"
 779              		.file 4 "../../Middlewares/Third_Party/LwIP/src/include/lwip/arch.h"
 780              		.file 5 "../../Middlewares/Third_Party/LwIP/src/include/lwip/timeouts.h"
 781              		.file 6 "../../Middlewares/Third_Party/LwIP/src/include/lwip/memp.h"
 782              		.file 7 "/usr/include/newlib/stdio.h"
 783              		.file 8 "../../Middlewares/Third_Party/LwIP/src/include/lwip/etharp.h"
 784              		.file 9 "../../Middlewares/Third_Party/LwIP/src/include/lwip/ip4_frag.h"
 785              		.file 10 "../../Middlewares/Third_Party/LwIP/src/include/lwip/sys.h"
ARM GAS  /tmp/ccauiiuq.s 			page 24

